

Microchip MPLAB XC8 Assembler V2.10 build 88905656 
                                                                                               Thu Feb 06 15:07:46 2020

Microchip MPLAB XC8 C Compiler v2.10 (Free license) build 20190730164152 Og1 
     1                           	processor	16F887
     2                           	opt	pw 120
     3                           	opt	flic
     4                           	psect	idataBANK0,global,class=CODE,delta=2
     5                           	psect	nvCOMMON,global,class=COMMON,space=1,delta=1
     6                           	psect	nvBANK0,global,class=BANK0,space=1,delta=1
     7                           	psect	cinit,global,class=CODE,merge=1,delta=2
     8                           	psect	bssCOMMON,global,class=COMMON,space=1,delta=1
     9                           	psect	dataBANK0,global,class=BANK0,space=1,delta=1
    10                           	psect	inittext,global,class=CODE,delta=2
    11                           	psect	cstackCOMMON,global,class=COMMON,space=1,delta=1
    12                           	psect	cstackBANK0,global,class=BANK0,space=1,delta=1
    13                           	psect	maintext,global,class=CODE,split=1,delta=2
    14                           	psect	text1,local,class=CODE,merge=1,delta=2
    15                           	psect	text2,local,class=CODE,merge=1,delta=2
    16                           	psect	text3,local,class=CODE,merge=1,delta=2
    17                           	psect	text4,local,class=CODE,merge=1,delta=2
    18                           	psect	intentry,global,class=CODE,delta=2
    19                           	dabs	1,0x7E,2
    20  0000                     
    21                           ; Version 2.10
    22                           ; Generated 31/07/2019 GMT
    23                           ; 
    24                           ; Copyright © 2019, Microchip Technology Inc. and its subsidiaries ("Microchip")
    25                           ; All rights reserved.
    26                           ; 
    27                           ; This software is developed by Microchip Technology Inc. and its subsidiaries ("Microch
      +                          ip").
    28                           ; 
    29                           ; Redistribution and use in source and binary forms, with or without modification, are
    30                           ; permitted provided that the following conditions are met:
    31                           ; 
    32                           ;     1. Redistributions of source code must retain the above copyright notice, this lis
      +                          t of
    33                           ;        conditions and the following disclaimer.
    34                           ; 
    35                           ;     2. Redistributions in binary form must reproduce the above copyright notice, this 
      +                          list
    36                           ;        of conditions and the following disclaimer in the documentation and/or other
    37                           ;        materials provided with the distribution.
    38                           ; 
    39                           ;     3. Microchip's name may not be used to endorse or promote products derived from th
      +                          is
    40                           ;        software without specific prior written permission.
    41                           ; 
    42                           ; THIS SOFTWARE IS PROVIDED BY MICROCHIP "AS IS" AND ANY EXPRESS OR IMPLIED WARRANTIES,
    43                           ; INCLUDING, BUT NOT LIMITED TO, THE IMPLIED WARRANTIES OF MERCHANTABILITY AND FITNESS F
      +                          OR
    44                           ; PURPOSE ARE DISCLAIMED.  IN NO EVENT SHALL MICROCHIP BE LIABLE FOR ANY DIRECT, INDIREC
      +                          T,
    45                           ; INCIDENTAL, SPECIAL, EXEMPLARY, OR CONSEQUENTIAL DAMAGES (INCLUDING BUT NOT LIMITED TO
    46                           ; PROCUREMENT OF SUBSTITUTE GOODS OR SERVICES; LOSS OF USE, DATA OR PROFITS; OR BUSINESS
    47                           ; INTERRUPTION) HOWSOEVER CAUSED AND ON ANY THEORY OF LIABILITY, WHETHER IN CONTRACT, ST
      +                          RICT
    48                           ; LIABILITY, OR TORT (INCLUDING NEGLIGENCE OR OTHERWISE) ARISING IN ANY WAY OUT OF THE U
      +                          SE OF
    49                           ; THIS SOFTWARE, EVEN IF ADVISED OF THE POSSIBILITY OF SUCH DAMAGE.
    50                           ; 
    51                           ; 
    52                           ; Code-generator required, PIC16F887 Definitions
    53                           ; 
    54                           ; SFR Addresses
    55  0000                     	;# 
    56  0001                     	;# 
    57  0002                     	;# 
    58  0003                     	;# 
    59  0004                     	;# 
    60  0005                     	;# 
    61  0006                     	;# 
    62  0007                     	;# 
    63  0008                     	;# 
    64  0009                     	;# 
    65  000A                     	;# 
    66  000B                     	;# 
    67  000C                     	;# 
    68  000D                     	;# 
    69  000E                     	;# 
    70  000E                     	;# 
    71  000F                     	;# 
    72  0010                     	;# 
    73  0011                     	;# 
    74  0012                     	;# 
    75  0013                     	;# 
    76  0014                     	;# 
    77  0015                     	;# 
    78  0015                     	;# 
    79  0016                     	;# 
    80  0017                     	;# 
    81  0018                     	;# 
    82  0019                     	;# 
    83  001A                     	;# 
    84  001B                     	;# 
    85  001B                     	;# 
    86  001C                     	;# 
    87  001D                     	;# 
    88  001E                     	;# 
    89  001F                     	;# 
    90  0081                     	;# 
    91  0085                     	;# 
    92  0086                     	;# 
    93  0087                     	;# 
    94  0088                     	;# 
    95  0089                     	;# 
    96  008C                     	;# 
    97  008D                     	;# 
    98  008E                     	;# 
    99  008F                     	;# 
   100  0090                     	;# 
   101  0091                     	;# 
   102  0092                     	;# 
   103  0093                     	;# 
   104  0093                     	;# 
   105  0093                     	;# 
   106  0094                     	;# 
   107  0095                     	;# 
   108  0096                     	;# 
   109  0097                     	;# 
   110  0098                     	;# 
   111  0099                     	;# 
   112  009A                     	;# 
   113  009B                     	;# 
   114  009C                     	;# 
   115  009D                     	;# 
   116  009E                     	;# 
   117  009F                     	;# 
   118  0105                     	;# 
   119  0107                     	;# 
   120  0108                     	;# 
   121  0109                     	;# 
   122  010C                     	;# 
   123  010C                     	;# 
   124  010D                     	;# 
   125  010E                     	;# 
   126  010F                     	;# 
   127  0185                     	;# 
   128  0187                     	;# 
   129  0188                     	;# 
   130  0189                     	;# 
   131  018C                     	;# 
   132  018D                     	;# 
   133  0000                     	;# 
   134  0001                     	;# 
   135  0002                     	;# 
   136  0003                     	;# 
   137  0004                     	;# 
   138  0005                     	;# 
   139  0006                     	;# 
   140  0007                     	;# 
   141  0008                     	;# 
   142  0009                     	;# 
   143  000A                     	;# 
   144  000B                     	;# 
   145  000C                     	;# 
   146  000D                     	;# 
   147  000E                     	;# 
   148  000E                     	;# 
   149  000F                     	;# 
   150  0010                     	;# 
   151  0011                     	;# 
   152  0012                     	;# 
   153  0013                     	;# 
   154  0014                     	;# 
   155  0015                     	;# 
   156  0015                     	;# 
   157  0016                     	;# 
   158  0017                     	;# 
   159  0018                     	;# 
   160  0019                     	;# 
   161  001A                     	;# 
   162  001B                     	;# 
   163  001B                     	;# 
   164  001C                     	;# 
   165  001D                     	;# 
   166  001E                     	;# 
   167  001F                     	;# 
   168  0081                     	;# 
   169  0085                     	;# 
   170  0086                     	;# 
   171  0087                     	;# 
   172  0088                     	;# 
   173  0089                     	;# 
   174  008C                     	;# 
   175  008D                     	;# 
   176  008E                     	;# 
   177  008F                     	;# 
   178  0090                     	;# 
   179  0091                     	;# 
   180  0092                     	;# 
   181  0093                     	;# 
   182  0093                     	;# 
   183  0093                     	;# 
   184  0094                     	;# 
   185  0095                     	;# 
   186  0096                     	;# 
   187  0097                     	;# 
   188  0098                     	;# 
   189  0099                     	;# 
   190  009A                     	;# 
   191  009B                     	;# 
   192  009C                     	;# 
   193  009D                     	;# 
   194  009E                     	;# 
   195  009F                     	;# 
   196  0105                     	;# 
   197  0107                     	;# 
   198  0108                     	;# 
   199  0109                     	;# 
   200  010C                     	;# 
   201  010C                     	;# 
   202  010D                     	;# 
   203  010E                     	;# 
   204  010F                     	;# 
   205  0185                     	;# 
   206  0187                     	;# 
   207  0188                     	;# 
   208  0189                     	;# 
   209  018C                     	;# 
   210  018D                     	;# 
   211  0000                     	;# 
   212  0001                     	;# 
   213  0002                     	;# 
   214  0003                     	;# 
   215  0004                     	;# 
   216  0005                     	;# 
   217  0006                     	;# 
   218  0007                     	;# 
   219  0008                     	;# 
   220  0009                     	;# 
   221  000A                     	;# 
   222  000B                     	;# 
   223  000C                     	;# 
   224  000D                     	;# 
   225  000E                     	;# 
   226  000E                     	;# 
   227  000F                     	;# 
   228  0010                     	;# 
   229  0011                     	;# 
   230  0012                     	;# 
   231  0013                     	;# 
   232  0014                     	;# 
   233  0015                     	;# 
   234  0015                     	;# 
   235  0016                     	;# 
   236  0017                     	;# 
   237  0018                     	;# 
   238  0019                     	;# 
   239  001A                     	;# 
   240  001B                     	;# 
   241  001B                     	;# 
   242  001C                     	;# 
   243  001D                     	;# 
   244  001E                     	;# 
   245  001F                     	;# 
   246  0081                     	;# 
   247  0085                     	;# 
   248  0086                     	;# 
   249  0087                     	;# 
   250  0088                     	;# 
   251  0089                     	;# 
   252  008C                     	;# 
   253  008D                     	;# 
   254  008E                     	;# 
   255  008F                     	;# 
   256  0090                     	;# 
   257  0091                     	;# 
   258  0092                     	;# 
   259  0093                     	;# 
   260  0093                     	;# 
   261  0093                     	;# 
   262  0094                     	;# 
   263  0095                     	;# 
   264  0096                     	;# 
   265  0097                     	;# 
   266  0098                     	;# 
   267  0099                     	;# 
   268  009A                     	;# 
   269  009B                     	;# 
   270  009C                     	;# 
   271  009D                     	;# 
   272  009E                     	;# 
   273  009F                     	;# 
   274  0105                     	;# 
   275  0107                     	;# 
   276  0108                     	;# 
   277  0109                     	;# 
   278  010C                     	;# 
   279  010C                     	;# 
   280  010D                     	;# 
   281  010E                     	;# 
   282  010F                     	;# 
   283  0185                     	;# 
   284  0187                     	;# 
   285  0188                     	;# 
   286  0189                     	;# 
   287  018C                     	;# 
   288  018D                     	;# 
   289                           
   290                           	psect	idataBANK0
   291  013F                     __pidataBANK0:	
   292                           
   293                           ;initializer for _disp
   294  013F  34EE               	retlw	238
   295  0140  3428               	retlw	40
   296  0141  34CD               	retlw	205
   297  0142  346D               	retlw	109
   298  0143  342B               	retlw	43
   299  0144  3467               	retlw	103
   300  0145  34E7               	retlw	231
   301  0146  342C               	retlw	44
   302  0147  34EF               	retlw	239
   303  0148  346F               	retlw	111
   304  0149  34AF               	retlw	175
   305  014A  34E3               	retlw	227
   306  014B  34C6               	retlw	198
   307  014C  34E9               	retlw	233
   308  014D  34C7               	retlw	199
   309  014E  3487               	retlw	135
   310                           
   311                           	psect	nvCOMMON
   312  0079                     __pnvCOMMON:	
   313  0079                     _X:	
   314  0079                     	ds	1
   315  007A                     _Y1:	
   316  007A                     	ds	1
   317  007B                     _X1:	
   318  007B                     	ds	1
   319                           
   320                           	psect	nvBANK0
   321  0032                     __pnvBANK0:	
   322  0032                     _Y:	
   323  0032                     	ds	1
   324  001E                     _ADRESH	set	30
   325  0001                     _TMR0	set	1
   326  001F                     _ADCON0bits	set	31
   327  0007                     _PORTC	set	7
   328  0005                     _PORTA	set	5
   329  0008                     _PORTDbits	set	8
   330  0006                     _PORTBbits	set	6
   331  000B                     _INTCONbits	set	11
   332  009F                     _ADCON1bits	set	159
   333  008F                     _OSCCONbits	set	143
   334  0088                     _TRISDbits	set	136
   335  0081                     _OPTION_REGbits	set	129
   336  0096                     _IOCBbits	set	150
   337  0086                     _TRISBbits	set	134
   338  0085                     _TRISA	set	133
   339  0087                     _TRISC	set	135
   340  0189                     _ANSELH	set	393
   341                           
   342                           ; #config settings
   343  0000                     
   344                           	psect	cinit
   345  000F                     start_initialization:	
   346  000F                     __initialization:	
   347                           
   348                           ; Initialize objects allocated to BANK0
   349  000F  1383               	bcf	3,7	;select IRP bank0
   350  0010  3030               	movlw	low (__pdataBANK0+16)
   351  0011  00FD               	movwf	btemp+-1
   352  0012  3001               	movlw	high __pidataBANK0
   353  0013  00FE               	movwf	btemp
   354  0014  303F               	movlw	low __pidataBANK0
   355  0015  00FF               	movwf	btemp+1
   356  0016  3020               	movlw	low __pdataBANK0
   357  0017  0084               	movwf	4
   358  0018  120A  118A  2130  120A  118A  	fcall	init_ram0
   359                           
   360                           ; Clear objects allocated to COMMON
   361  001D  01F0               	clrf	__pbssCOMMON& (0+127)
   362  001E  01F1               	clrf	(__pbssCOMMON+1)& (0+127)
   363  001F  01F2               	clrf	(__pbssCOMMON+2)& (0+127)
   364  0020  01F3               	clrf	(__pbssCOMMON+3)& (0+127)
   365  0021  01F4               	clrf	(__pbssCOMMON+4)& (0+127)
   366  0022                     end_of_initialization:	
   367                           ;End of C runtime variable initialization code
   368                           
   369  0022                     __end_of__initialization:	
   370  0022  0183               	clrf	3
   371  0023  120A  118A  2826   	ljmp	_main	;jump to C main() function
   372                           
   373                           	psect	bssCOMMON
   374  0070                     __pbssCOMMON:	
   375  0070                     _INN2:	
   376  0070                     	ds	1
   377  0071                     _IN2:	
   378  0071                     	ds	1
   379  0072                     _INN1:	
   380  0072                     	ds	1
   381  0073                     _IN1:	
   382  0073                     	ds	1
   383  0074                     _contador:	
   384  0074                     	ds	1
   385                           
   386                           	psect	dataBANK0
   387  0020                     __pdataBANK0:	
   388  0020                     _disp:	
   389  0020                     	ds	16
   390                           
   391                           	psect	inittext
   392  012C                     init_fetch0:	
   393                           ;	Called with low address in FSR and high address in W
   394                           
   395  012C  087E               	movf	btemp,w
   396  012D  008A               	movwf	10
   397  012E  087F               	movf	btemp+1,w
   398  012F  0082               	movwf	2
   399  0130                     init_ram0:	
   400                           ;Called with:
   401                           ;	high address of idata address in btemp 
   402                           ;	low address of idata address in btemp+1 
   403                           ;	low address of data in FSR
   404                           ;	high address + 1 of data in btemp-1
   405                           
   406  0130  120A  118A  212C  120A  118A  	fcall	init_fetch0
   407  0135  0080               	movwf	0
   408  0136  0A84               	incf	4,f
   409  0137  0804               	movf	4,w
   410  0138  067D               	xorwf	btemp+-1,w
   411  0139  1903               	btfsc	3,2
   412  013A  3400               	retlw	0
   413  013B  0AFF               	incf	btemp+1,f
   414  013C  1903               	btfsc	3,2
   415  013D  0AFE               	incf	btemp,f
   416  013E  2930               	goto	init_ram0
   417                           
   418                           	psect	cstackCOMMON
   419  0075                     __pcstackCOMMON:	
   420  0075                     ?_config_adc:	
   421  0075                     ?_adc_conv:	
   422                           ; 1 bytes @ 0x0
   423                           
   424  0075                     ?_timer0:	
   425                           ; 1 bytes @ 0x0
   426                           
   427  0075                     ?_ISR:	
   428                           ; 1 bytes @ 0x0
   429                           
   430  0075                     ??_ISR:	
   431                           ; 1 bytes @ 0x0
   432                           
   433  0075                     ?_main:	
   434                           ; 1 bytes @ 0x0
   435                           
   436                           
   437                           ; 1 bytes @ 0x0
   438  0075                     	ds	2
   439  0077                     ??_config_adc:	
   440  0077                     ??_adc_conv:	
   441                           ; 1 bytes @ 0x2
   442                           
   443  0077                     ??_timer0:	
   444                           ; 1 bytes @ 0x2
   445                           
   446                           
   447                           ; 1 bytes @ 0x2
   448  0077                     	ds	2
   449                           
   450                           	psect	cstackBANK0
   451  0030                     __pcstackBANK0:	
   452  0030                     ??_main:	
   453                           
   454                           ; 1 bytes @ 0x0
   455  0030                     	ds	2
   456                           
   457                           	psect	maintext
   458  0026                     __pmaintext:	
   459 ;;
   460 ;;Main: autosize = 0, tempsize = 2, incstack = 0, save=0
   461 ;;
   462 ;; *************** function _main *****************
   463 ;; Defined at:
   464 ;;		line 89 in file "LAB_2.c"
   465 ;; Parameters:    Size  Location     Type
   466 ;;		None
   467 ;; Auto vars:     Size  Location     Type
   468 ;;		None
   469 ;; Return value:  Size  Location     Type
   470 ;;                  1    wreg      void 
   471 ;; Registers used:
   472 ;;		wreg, fsr0l, fsr0h, status,2, status,0, pclath, cstack
   473 ;; Tracked objects:
   474 ;;		On entry : B00/0
   475 ;;		On exit  : 0/0
   476 ;;		Unchanged: 0/0
   477 ;; Data sizes:     COMMON   BANK0   BANK1   BANK3   BANK2
   478 ;;      Params:         0       0       0       0       0
   479 ;;      Locals:         0       0       0       0       0
   480 ;;      Temps:          0       2       0       0       0
   481 ;;      Totals:         0       2       0       0       0
   482 ;;Total ram usage:        2 bytes
   483 ;; Hardware stack levels required when called:    2
   484 ;; This function calls:
   485 ;;		_adc_conv
   486 ;;		_config_adc
   487 ;;		_timer0
   488 ;; This function is called by:
   489 ;;		Startup code after reset
   490 ;; This function uses a non-reentrant model
   491 ;;
   492                           
   493                           
   494                           ;psect for function _main
   495  0026                     _main:	
   496  0026                     l960:	
   497                           ;incstack = 0
   498                           ; Regs used in _main: [wreg-fsr0h+status,2+status,0+pclath+cstack]
   499                           
   500                           
   501                           ;LAB_2.c: 91:     config_adc();
   502  0026  120A  118A  214F  120A  118A  	fcall	_config_adc
   503                           
   504                           ;LAB_2.c: 92:     adc_conv();
   505  002B  120A  118A  210F  120A  118A  	fcall	_adc_conv
   506                           
   507                           ;LAB_2.c: 93:     timer0();
   508  0030  120A  118A  215E  120A  118A  	fcall	_timer0
   509  0035                     l962:	
   510                           
   511                           ;LAB_2.c: 96:     TRISC = 0;
   512  0035  1683               	bsf	3,5	;RP0=1, select bank1
   513  0036  1303               	bcf	3,6	;RP1=0, select bank1
   514  0037  0187               	clrf	7	;volatile
   515  0038                     l964:	
   516                           
   517                           ;LAB_2.c: 97:     TRISA = 0;
   518  0038  0185               	clrf	5	;volatile
   519  0039                     l966:	
   520                           
   521                           ;LAB_2.c: 99:     TRISBbits.TRISB1 = 1;
   522  0039  1486               	bsf	6,1	;volatile
   523  003A                     l968:	
   524                           
   525                           ;LAB_2.c: 100:     TRISBbits.TRISB2 = 1;
   526  003A  1506               	bsf	6,2	;volatile
   527  003B                     l970:	
   528                           
   529                           ;LAB_2.c: 101:     IOCBbits.IOCB1 = 1;
   530  003B  1496               	bsf	22,1	;volatile
   531  003C                     l972:	
   532                           
   533                           ;LAB_2.c: 102:     IOCBbits.IOCB2 = 1;
   534  003C  1516               	bsf	22,2	;volatile
   535  003D                     l974:	
   536                           
   537                           ;LAB_2.c: 105:     OPTION_REGbits.INTEDG = 1;
   538  003D  1701               	bsf	1,6	;volatile
   539  003E                     l976:	
   540                           
   541                           ;LAB_2.c: 106:     INTCONbits.GIE = 1;
   542  003E  178B               	bsf	11,7	;volatile
   543  003F                     l978:	
   544                           
   545                           ;LAB_2.c: 107:     INTCONbits.INTE = 1;
   546  003F  160B               	bsf	11,4	;volatile
   547  0040                     l980:	
   548                           
   549                           ;LAB_2.c: 110:     TRISDbits.TRISD4 = 0;
   550  0040  1208               	bcf	8,4	;volatile
   551  0041                     l982:	
   552                           
   553                           ;LAB_2.c: 111:     TRISDbits.TRISD5 = 0;
   554  0041  1288               	bcf	8,5	;volatile
   555  0042                     l984:	
   556                           
   557                           ;LAB_2.c: 113:     TRISBbits.TRISB5 = 1;
   558  0042  1686               	bsf	6,5	;volatile
   559  0043                     l986:	
   560                           
   561                           ;LAB_2.c: 114:     ANSELH = 0b00100000;
   562  0043  3020               	movlw	32
   563  0044  1683               	bsf	3,5	;RP0=1, select bank3
   564  0045  1703               	bsf	3,6	;RP1=1, select bank3
   565  0046  0089               	movwf	9	;volatile
   566  0047                     l988:	
   567                           
   568                           ;LAB_2.c: 116:     TRISBbits.TRISB7 = 0;
   569  0047  1683               	bsf	3,5	;RP0=1, select bank1
   570  0048  1303               	bcf	3,6	;RP1=0, select bank1
   571  0049  1386               	bcf	6,7	;volatile
   572  004A                     l990:	
   573                           
   574                           ;LAB_2.c: 118:     config_adc();
   575  004A  120A  118A  214F  120A  118A  	fcall	_config_adc
   576  004F                     l992:	
   577                           
   578                           ;LAB_2.c: 120:     timer0();
   579  004F  120A  118A  215E  120A  118A  	fcall	_timer0
   580  0054                     l994:	
   581                           
   582                           ;LAB_2.c: 123:     OSCCONbits.IRCF0 = 1;
   583  0054  1683               	bsf	3,5	;RP0=1, select bank1
   584  0055  1303               	bcf	3,6	;RP1=0, select bank1
   585  0056  160F               	bsf	15,4	;volatile
   586  0057                     l996:	
   587                           
   588                           ;LAB_2.c: 124:     OSCCONbits.IRCF1 = 1;
   589  0057  168F               	bsf	15,5	;volatile
   590  0058                     l998:	
   591                           
   592                           ;LAB_2.c: 125:     OSCCONbits.IRCF2 = 1;
   593  0058  170F               	bsf	15,6	;volatile
   594  0059                     l1000:	
   595                           
   596                           ;LAB_2.c: 130:     PORTDbits.RD4 = 0;
   597  0059  1283               	bcf	3,5	;RP0=0, select bank0
   598  005A  1303               	bcf	3,6	;RP1=0, select bank0
   599  005B  1208               	bcf	8,4	;volatile
   600  005C                     l1002:	
   601                           
   602                           ;LAB_2.c: 131:     PORTDbits.RD5 = 0;
   603  005C  1288               	bcf	8,5	;volatile
   604  005D                     l1004:	
   605                           
   606                           ;LAB_2.c: 132:     PORTA = 0;
   607  005D  0185               	clrf	5	;volatile
   608  005E                     l1006:	
   609                           
   610                           ;LAB_2.c: 133:     PORTBbits.RB7 = 0;
   611  005E  1386               	bcf	6,7	;volatile
   612  005F                     l1008:	
   613                           
   614                           ;LAB_2.c: 137:         adc_conv();
   615  005F  120A  118A  210F  120A  118A  	fcall	_adc_conv
   616  0064                     l1010:	
   617                           
   618                           ;LAB_2.c: 141:         PORTC = disp[X1];
   619  0064  087B               	movf	_X1,w
   620  0065  3E20               	addlw	(low (_disp| 0))& (0+255)
   621  0066  0084               	movwf	4
   622  0067  1383               	bcf	3,7	;select IRP bank0
   623  0068  0800               	movf	0,w
   624  0069  1283               	bcf	3,5	;RP0=0, select bank0
   625  006A  1303               	bcf	3,6	;RP1=0, select bank0
   626  006B  0087               	movwf	7	;volatile
   627  006C                     l1012:	
   628                           
   629                           ;LAB_2.c: 142:         PORTDbits.RD4 = 1;
   630  006C  1608               	bsf	8,4	;volatile
   631  006D                     l1014:	
   632                           
   633                           ;LAB_2.c: 143:         _delay((unsigned long)((10)*(8000000/4000.0)));
   634  006D  301A               	movlw	26
   635  006E  1283               	bcf	3,5	;RP0=0, select bank0
   636  006F  1303               	bcf	3,6	;RP1=0, select bank0
   637  0070  00B1               	movwf	??_main+1
   638  0071  30F7               	movlw	247
   639  0072  00B0               	movwf	??_main
   640  0073                     u347:	
   641  0073  0BB0               	decfsz	??_main,f
   642  0074  2873               	goto	u347
   643  0075  0BB1               	decfsz	??_main+1,f
   644  0076  2873               	goto	u347
   645  0077  2878               	nop2
   646  0078                     l1016:	
   647                           
   648                           ;LAB_2.c: 144:         PORTDbits.RD4 = 0;
   649  0078  1283               	bcf	3,5	;RP0=0, select bank0
   650  0079  1303               	bcf	3,6	;RP1=0, select bank0
   651  007A  1208               	bcf	8,4	;volatile
   652  007B                     l1018:	
   653                           
   654                           ;LAB_2.c: 146:         PORTC = disp[Y1];
   655  007B  087A               	movf	_Y1,w
   656  007C  3E20               	addlw	(low (_disp| 0))& (0+255)
   657  007D  0084               	movwf	4
   658  007E  1383               	bcf	3,7	;select IRP bank0
   659  007F  0800               	movf	0,w
   660  0080  0087               	movwf	7	;volatile
   661  0081                     l1020:	
   662                           
   663                           ;LAB_2.c: 147:         PORTDbits.RD5 = 1;
   664  0081  1688               	bsf	8,5	;volatile
   665  0082                     l1022:	
   666                           
   667                           ;LAB_2.c: 148:         _delay((unsigned long)((10)*(8000000/4000.0)));
   668  0082  301A               	movlw	26
   669  0083  1283               	bcf	3,5	;RP0=0, select bank0
   670  0084  1303               	bcf	3,6	;RP1=0, select bank0
   671  0085  00B1               	movwf	??_main+1
   672  0086  30F7               	movlw	247
   673  0087  00B0               	movwf	??_main
   674  0088                     u357:	
   675  0088  0BB0               	decfsz	??_main,f
   676  0089  2888               	goto	u357
   677  008A  0BB1               	decfsz	??_main+1,f
   678  008B  2888               	goto	u357
   679  008C  288D               	nop2
   680  008D                     l1024:	
   681                           
   682                           ;LAB_2.c: 149:         PORTDbits.RD5 = 0;
   683  008D  1283               	bcf	3,5	;RP0=0, select bank0
   684  008E  1303               	bcf	3,6	;RP1=0, select bank0
   685  008F  1288               	bcf	8,5	;volatile
   686  0090                     l1026:	
   687                           
   688                           ;LAB_2.c: 151:         if(ADCON0bits.GO_nDONE==0){
   689  0090  189F               	btfsc	31,1	;volatile
   690  0091  2893               	goto	u261
   691  0092  2894               	goto	u260
   692  0093                     u261:	
   693  0093  2895               	goto	l1030
   694  0094                     u260:	
   695  0094                     l1028:	
   696                           
   697                           ;LAB_2.c: 152:             ADCON0bits.GO_nDONE = 1;
   698  0094  149F               	bsf	31,1	;volatile
   699  0095                     l1030:	
   700                           
   701                           ;LAB_2.c: 156:         if(INN1==1){
   702  0095  0372               	decf	_INN1,w
   703  0096  1D03               	btfss	3,2
   704  0097  2899               	goto	u271
   705  0098  289A               	goto	u270
   706  0099                     u271:	
   707  0099  28AE               	goto	l1040
   708  009A                     u270:	
   709  009A                     l1032:	
   710                           
   711                           ;LAB_2.c: 157:             INN1=0;
   712  009A  01F2               	clrf	_INN1
   713  009B                     l1034:	
   714                           
   715                           ;LAB_2.c: 158:             if((contador>=0) & (contador<=254)){
   716  009B  0A74               	incf	_contador,w
   717  009C  1903               	btfsc	3,2
   718  009D  289F               	goto	u281
   719  009E  28A0               	goto	u280
   720  009F                     u281:	
   721  009F  28A5               	goto	l74
   722  00A0                     u280:	
   723  00A0                     l1036:	
   724                           
   725                           ;LAB_2.c: 159:                 contador = contador + 1;
   726  00A0  0874               	movf	_contador,w
   727  00A1  3E01               	addlw	1
   728  00A2  00B0               	movwf	??_main
   729  00A3  0830               	movf	??_main,w
   730  00A4  00F4               	movwf	_contador
   731  00A5                     l74:	
   732                           ;LAB_2.c: 160:             }
   733                           
   734                           
   735                           ;LAB_2.c: 161:             if(contador==255){
   736  00A5  0A74               	incf	_contador,w
   737  00A6  1D03               	btfss	3,2
   738  00A7  28A9               	goto	u291
   739  00A8  28AA               	goto	u290
   740  00A9                     u291:	
   741  00A9  28AE               	goto	l1040
   742  00AA                     u290:	
   743  00AA                     l1038:	
   744                           
   745                           ;LAB_2.c: 162:                 contador = 255;
   746  00AA  30FF               	movlw	255
   747  00AB  00B0               	movwf	??_main
   748  00AC  0830               	movf	??_main,w
   749  00AD  00F4               	movwf	_contador
   750  00AE                     l1040:	
   751                           
   752                           ;LAB_2.c: 166:         if(INN2==1){
   753  00AE  0370               	decf	_INN2,w
   754  00AF  1D03               	btfss	3,2
   755  00B0  28B2               	goto	u301
   756  00B1  28B3               	goto	u300
   757  00B2                     u301:	
   758  00B2  28C4               	goto	l1050
   759  00B3                     u300:	
   760  00B3                     l1042:	
   761                           
   762                           ;LAB_2.c: 167:             INN2=0;
   763  00B3  01F0               	clrf	_INN2
   764  00B4                     l1044:	
   765                           
   766                           ;LAB_2.c: 168:             if(contador>=1 & contador <=255){
   767  00B4  0874               	movf	_contador,w
   768  00B5  1903               	btfsc	3,2
   769  00B6  28B8               	goto	u311
   770  00B7  28B9               	goto	u310
   771  00B8                     u311:	
   772  00B8  28BE               	goto	l77
   773  00B9                     u310:	
   774  00B9                     l1046:	
   775                           
   776                           ;LAB_2.c: 169:                 contador = contador - 1;
   777  00B9  0874               	movf	_contador,w
   778  00BA  3EFF               	addlw	255
   779  00BB  00B0               	movwf	??_main
   780  00BC  0830               	movf	??_main,w
   781  00BD  00F4               	movwf	_contador
   782  00BE                     l77:	
   783                           ;LAB_2.c: 170:             }
   784                           
   785                           
   786                           ;LAB_2.c: 171:             if(contador==0){
   787  00BE  0874               	movf	_contador,w
   788  00BF  1D03               	btfss	3,2
   789  00C0  28C2               	goto	u321
   790  00C1  28C3               	goto	u320
   791  00C2                     u321:	
   792  00C2  28C4               	goto	l1050
   793  00C3                     u320:	
   794  00C3                     l1048:	
   795                           
   796                           ;LAB_2.c: 172:                 contador = 0;
   797  00C3  01F4               	clrf	_contador
   798  00C4                     l1050:	
   799                           
   800                           ;LAB_2.c: 176:         PORTA = contador;
   801  00C4  0874               	movf	_contador,w
   802  00C5  0085               	movwf	5	;volatile
   803  00C6                     l1052:	
   804                           
   805                           ;LAB_2.c: 179:         if(X >= contador){
   806  00C6  0874               	movf	_contador,w
   807  00C7  0279               	subwf	_X,w
   808  00C8  1C03               	skipc
   809  00C9  28CB               	goto	u331
   810  00CA  28CC               	goto	u330
   811  00CB                     u331:	
   812  00CB  28CE               	goto	l79
   813  00CC                     u330:	
   814  00CC                     l1054:	
   815                           
   816                           ;LAB_2.c: 180:             PORTBbits.RB7 = 1;
   817  00CC  1786               	bsf	6,7	;volatile
   818                           
   819                           ;LAB_2.c: 181:         }
   820  00CD  285F               	goto	l1008
   821  00CE                     l79:	
   822                           ;LAB_2.c: 182:         else{
   823                           
   824                           
   825                           ;LAB_2.c: 183:             PORTBbits.RB7 = 0;
   826  00CE  1386               	bcf	6,7	;volatile
   827  00CF  285F               	goto	l1008
   828  00D0  120A  118A  280C   	ljmp	start
   829  00D3                     __end_of_main:	
   830                           
   831                           	psect	text1
   832  015E                     __ptext1:	
   833 ;; *************** function _timer0 *****************
   834 ;; Defined at:
   835 ;;		line 4 in file "libreria_lab2.c"
   836 ;; Parameters:    Size  Location     Type
   837 ;;		None
   838 ;; Auto vars:     Size  Location     Type
   839 ;;		None
   840 ;; Return value:  Size  Location     Type
   841 ;;                  1    wreg      void 
   842 ;; Registers used:
   843 ;;		wreg, status,2, status,0
   844 ;; Tracked objects:
   845 ;;		On entry : 0/0
   846 ;;		On exit  : 0/0
   847 ;;		Unchanged: 0/0
   848 ;; Data sizes:     COMMON   BANK0   BANK1   BANK3   BANK2
   849 ;;      Params:         0       0       0       0       0
   850 ;;      Locals:         0       0       0       0       0
   851 ;;      Temps:          0       0       0       0       0
   852 ;;      Totals:         0       0       0       0       0
   853 ;;Total ram usage:        0 bytes
   854 ;; Hardware stack levels used:    1
   855 ;; Hardware stack levels required when called:    1
   856 ;; This function calls:
   857 ;;		Nothing
   858 ;; This function is called by:
   859 ;;		_main
   860 ;; This function uses a non-reentrant model
   861 ;;
   862                           
   863                           
   864                           ;psect for function _timer0
   865  015E                     _timer0:	
   866  015E                     l720:	
   867                           ;incstack = 0
   868                           ; Regs used in _timer0: [wreg+status,2+status,0]
   869                           
   870                           
   871                           ;libreria_lab2.c: 6:     OPTION_REGbits.nRBPU = 1;
   872  015E  1683               	bsf	3,5	;RP0=1, select bank1
   873  015F  1303               	bcf	3,6	;RP1=0, select bank1
   874  0160  1781               	bsf	1,7	;volatile
   875                           
   876                           ;libreria_lab2.c: 7:     OPTION_REGbits.INTEDG = 0;
   877  0161  1301               	bcf	1,6	;volatile
   878                           
   879                           ;libreria_lab2.c: 8:     OPTION_REGbits.T0CS = 0;
   880  0162  1281               	bcf	1,5	;volatile
   881                           
   882                           ;libreria_lab2.c: 9:     OPTION_REGbits.T0SE = 0;
   883  0163  1201               	bcf	1,4	;volatile
   884                           
   885                           ;libreria_lab2.c: 10:     OPTION_REGbits.PSA = 0;
   886  0164  1181               	bcf	1,3	;volatile
   887  0165                     l722:	
   888                           
   889                           ;libreria_lab2.c: 11:     OPTION_REGbits.PS = 0b000;
   890  0165  30F8               	movlw	-8
   891  0166  0581               	andwf	1,f	;volatile
   892  0167                     l724:	
   893                           
   894                           ;libreria_lab2.c: 12:     TMR0 = 3;
   895  0167  3003               	movlw	3
   896  0168  1283               	bcf	3,5	;RP0=0, select bank0
   897  0169  1303               	bcf	3,6	;RP1=0, select bank0
   898  016A  0081               	movwf	1	;volatile
   899  016B                     l104:	
   900  016B  0008               	return
   901  016C                     __end_of_timer0:	
   902                           
   903                           	psect	text2
   904  014F                     __ptext2:	
   905 ;; *************** function _config_adc *****************
   906 ;; Defined at:
   907 ;;		line 16 in file "libreria_lab2.c"
   908 ;; Parameters:    Size  Location     Type
   909 ;;		None
   910 ;; Auto vars:     Size  Location     Type
   911 ;;		None
   912 ;; Return value:  Size  Location     Type
   913 ;;                  1    wreg      void 
   914 ;; Registers used:
   915 ;;		wreg, status,2, status,0
   916 ;; Tracked objects:
   917 ;;		On entry : 0/0
   918 ;;		On exit  : 0/0
   919 ;;		Unchanged: 0/0
   920 ;; Data sizes:     COMMON   BANK0   BANK1   BANK3   BANK2
   921 ;;      Params:         0       0       0       0       0
   922 ;;      Locals:         0       0       0       0       0
   923 ;;      Temps:          0       0       0       0       0
   924 ;;      Totals:         0       0       0       0       0
   925 ;;Total ram usage:        0 bytes
   926 ;; Hardware stack levels used:    1
   927 ;; Hardware stack levels required when called:    1
   928 ;; This function calls:
   929 ;;		Nothing
   930 ;; This function is called by:
   931 ;;		_main
   932 ;; This function uses a non-reentrant model
   933 ;;
   934                           
   935                           
   936                           ;psect for function _config_adc
   937  014F                     _config_adc:	
   938  014F                     l702:	
   939                           ;incstack = 0
   940                           ; Regs used in _config_adc: [wreg+status,2+status,0]
   941                           
   942                           
   943                           ;libreria_lab2.c: 19:     ADCON0bits.ADCS1 = 1;
   944  014F  1283               	bcf	3,5	;RP0=0, select bank0
   945  0150  1303               	bcf	3,6	;RP1=0, select bank0
   946  0151  179F               	bsf	31,7	;volatile
   947                           
   948                           ;libreria_lab2.c: 20:     ADCON0bits.ADCS0 = 0;
   949  0152  131F               	bcf	31,6	;volatile
   950  0153                     l704:	
   951                           
   952                           ;libreria_lab2.c: 22:     ADCON0bits.CHS = 0b1101;
   953  0153  081F               	movf	31,w	;volatile
   954  0154  39C3               	andlw	-61
   955  0155  3834               	iorlw	52
   956  0156  009F               	movwf	31	;volatile
   957  0157                     l706:	
   958                           
   959                           ;libreria_lab2.c: 24:     ADCON0bits.ADON = 1;
   960  0157  141F               	bsf	31,0	;volatile
   961  0158                     l708:	
   962                           
   963                           ;libreria_lab2.c: 26:     ADCON1bits.ADFM = 0;
   964  0158  1683               	bsf	3,5	;RP0=1, select bank1
   965  0159  1303               	bcf	3,6	;RP1=0, select bank1
   966  015A  139F               	bcf	31,7	;volatile
   967  015B                     l710:	
   968                           
   969                           ;libreria_lab2.c: 28:     ADCON1bits.VCFG1 = 0;
   970  015B  129F               	bcf	31,5	;volatile
   971  015C                     l712:	
   972                           
   973                           ;libreria_lab2.c: 29:     ADCON1bits.VCFG0 = 0;
   974  015C  121F               	bcf	31,4	;volatile
   975  015D                     l107:	
   976  015D  0008               	return
   977  015E                     __end_of_config_adc:	
   978                           
   979                           	psect	text3
   980  010F                     __ptext3:	
   981 ;; *************** function _adc_conv *****************
   982 ;; Defined at:
   983 ;;		line 32 in file "libreria_lab2.c"
   984 ;; Parameters:    Size  Location     Type
   985 ;;		None
   986 ;; Auto vars:     Size  Location     Type
   987 ;;		None
   988 ;; Return value:  Size  Location     Type
   989 ;;                  1    wreg      void 
   990 ;; Registers used:
   991 ;;		wreg, status,2, status,0
   992 ;; Tracked objects:
   993 ;;		On entry : 0/0
   994 ;;		On exit  : 0/0
   995 ;;		Unchanged: 0/0
   996 ;; Data sizes:     COMMON   BANK0   BANK1   BANK3   BANK2
   997 ;;      Params:         0       0       0       0       0
   998 ;;      Locals:         0       0       0       0       0
   999 ;;      Temps:          2       0       0       0       0
  1000 ;;      Totals:         2       0       0       0       0
  1001 ;;Total ram usage:        2 bytes
  1002 ;; Hardware stack levels used:    1
  1003 ;; Hardware stack levels required when called:    1
  1004 ;; This function calls:
  1005 ;;		Nothing
  1006 ;; This function is called by:
  1007 ;;		_main
  1008 ;; This function uses a non-reentrant model
  1009 ;;
  1010                           
  1011                           
  1012                           ;psect for function _adc_conv
  1013  010F                     _adc_conv:	
  1014  010F                     l858:	
  1015                           ;incstack = 0
  1016                           ; Regs used in _adc_conv: [wreg+status,2+status,0]
  1017                           
  1018                           
  1019                           ;libreria_lab2.c: 33:     X = ADRESH;
  1020  010F  1283               	bcf	3,5	;RP0=0, select bank0
  1021  0110  1303               	bcf	3,6	;RP1=0, select bank0
  1022  0111  081E               	movf	30,w	;volatile
  1023  0112  00F7               	movwf	??_adc_conv
  1024  0113  0877               	movf	??_adc_conv,w
  1025  0114  00F9               	movwf	_X
  1026                           
  1027                           ;libreria_lab2.c: 34:     Y = ADRESH;
  1028  0115  081E               	movf	30,w	;volatile
  1029  0116  00F7               	movwf	??_adc_conv
  1030  0117  0877               	movf	??_adc_conv,w
  1031  0118  00B2               	movwf	_Y
  1032  0119                     l860:	
  1033                           
  1034                           ;libreria_lab2.c: 36:     X1 = (X & 0b00001111);
  1035  0119  0879               	movf	_X,w
  1036  011A  390F               	andlw	15
  1037  011B  00F7               	movwf	??_adc_conv
  1038  011C  0877               	movf	??_adc_conv,w
  1039  011D  00FB               	movwf	_X1
  1040  011E                     l862:	
  1041                           
  1042                           ;libreria_lab2.c: 37:     Y1 = (Y & 0b11110000)>>4;
  1043  011E  0832               	movf	_Y,w
  1044  011F  00F7               	movwf	??_adc_conv
  1045  0120  3004               	movlw	4
  1046  0121                     u175:	
  1047  0121  1003               	clrc
  1048  0122  0CF7               	rrf	??_adc_conv,f
  1049  0123  3EFF               	addlw	-1
  1050  0124  1D03               	skipz
  1051  0125  2921               	goto	u175
  1052  0126  0877               	movf	??_adc_conv,w
  1053  0127  390F               	andlw	15
  1054  0128  00F8               	movwf	??_adc_conv+1
  1055  0129  0878               	movf	??_adc_conv+1,w
  1056  012A  00FA               	movwf	_Y1
  1057  012B                     l110:	
  1058  012B  0008               	return
  1059  012C                     __end_of_adc_conv:	
  1060                           
  1061                           	psect	text4
  1062  00D3                     __ptext4:	
  1063 ;; *************** function _ISR *****************
  1064 ;; Defined at:
  1065 ;;		line 53 in file "LAB_2.c"
  1066 ;; Parameters:    Size  Location     Type
  1067 ;;		None
  1068 ;; Auto vars:     Size  Location     Type
  1069 ;;		None
  1070 ;; Return value:  Size  Location     Type
  1071 ;;                  1    wreg      void 
  1072 ;; Registers used:
  1073 ;;		wreg, status,2, status,0
  1074 ;; Tracked objects:
  1075 ;;		On entry : 0/0
  1076 ;;		On exit  : 0/0
  1077 ;;		Unchanged: 0/0
  1078 ;; Data sizes:     COMMON   BANK0   BANK1   BANK3   BANK2
  1079 ;;      Params:         0       0       0       0       0
  1080 ;;      Locals:         0       0       0       0       0
  1081 ;;      Temps:          2       0       0       0       0
  1082 ;;      Totals:         2       0       0       0       0
  1083 ;;Total ram usage:        2 bytes
  1084 ;; Hardware stack levels used:    1
  1085 ;; This function calls:
  1086 ;;		Nothing
  1087 ;; This function is called by:
  1088 ;;		Interrupt level 1
  1089 ;; This function uses a non-reentrant model
  1090 ;;
  1091                           
  1092                           
  1093                           ;psect for function _ISR
  1094  00D3                     _ISR:	
  1095  00D3                     i1l726:	
  1096                           
  1097                           ;LAB_2.c: 54:     (INTCONbits.GIE = 0);
  1098  00D3  138B               	bcf	11,7	;volatile
  1099                           
  1100                           ;LAB_2.c: 56:     if(INTCONbits.RBIF == 1){
  1101  00D4  1C0B               	btfss	11,0	;volatile
  1102  00D5  28D7               	goto	u2_21
  1103  00D6  28D8               	goto	u2_20
  1104  00D7                     u2_21:	
  1105  00D7  2908               	goto	i1l64
  1106  00D8                     u2_20:	
  1107  00D8                     i1l728:	
  1108                           
  1109                           ;LAB_2.c: 57:         INTCONbits.RBIF = 0;
  1110  00D8  100B               	bcf	11,0	;volatile
  1111                           
  1112                           ;LAB_2.c: 59:         if(PORTBbits.RB2==1){
  1113  00D9  1283               	bcf	3,5	;RP0=0, select bank0
  1114  00DA  1303               	bcf	3,6	;RP1=0, select bank0
  1115  00DB  1D06               	btfss	6,2	;volatile
  1116  00DC  28DE               	goto	u3_21
  1117  00DD  28DF               	goto	u3_20
  1118  00DE                     u3_21:	
  1119  00DE  28E2               	goto	i1l62
  1120  00DF                     u3_20:	
  1121  00DF                     i1l730:	
  1122                           
  1123                           ;LAB_2.c: 60:             IN1=1;
  1124  00DF  01F3               	clrf	_IN1
  1125  00E0  0AF3               	incf	_IN1,f
  1126                           
  1127                           ;LAB_2.c: 61:             (INTCONbits.GIE = 0);
  1128  00E1  138B               	bcf	11,7	;volatile
  1129  00E2                     i1l62:	
  1130                           ;LAB_2.c: 62:         }
  1131                           
  1132                           
  1133                           ;LAB_2.c: 63:         if(PORTBbits.RB2==0 && IN1==1){
  1134  00E2  1906               	btfsc	6,2	;volatile
  1135  00E3  28E5               	goto	u4_21
  1136  00E4  28E6               	goto	u4_20
  1137  00E5                     u4_21:	
  1138  00E5  28F2               	goto	i1l63
  1139  00E6                     u4_20:	
  1140  00E6                     i1l732:	
  1141  00E6  0373               	decf	_IN1,w
  1142  00E7  1D03               	btfss	3,2
  1143  00E8  28EA               	goto	u5_21
  1144  00E9  28EB               	goto	u5_20
  1145  00EA                     u5_21:	
  1146  00EA  28F2               	goto	i1l63
  1147  00EB                     u5_20:	
  1148  00EB                     i1l734:	
  1149                           
  1150                           ;LAB_2.c: 64:             IN1=0;
  1151  00EB  01F3               	clrf	_IN1
  1152  00EC                     i1l736:	
  1153                           
  1154                           ;LAB_2.c: 65:             INN1=1;
  1155  00EC  01F2               	clrf	_INN1
  1156  00ED  0AF2               	incf	_INN1,f
  1157  00EE                     i1l738:	
  1158                           
  1159                           ;LAB_2.c: 66:             INTCONbits.INTF = 0;
  1160  00EE  108B               	bcf	11,1	;volatile
  1161  00EF                     i1l740:	
  1162                           
  1163                           ;LAB_2.c: 67:             INTCONbits.RBIF = 0;
  1164  00EF  100B               	bcf	11,0	;volatile
  1165  00F0                     i1l742:	
  1166                           
  1167                           ;LAB_2.c: 68:             (INTCONbits.GIE = 1);
  1168  00F0  178B               	bsf	11,7	;volatile
  1169  00F1  2908               	goto	i1l64
  1170  00F2                     i1l63:	
  1171                           ;LAB_2.c: 70:         }
  1172                           
  1173                           
  1174                           ;LAB_2.c: 71:         if(PORTBbits.RB1==1){
  1175  00F2  1C86               	btfss	6,1	;volatile
  1176  00F3  28F5               	goto	u6_21
  1177  00F4  28F6               	goto	u6_20
  1178  00F5                     u6_21:	
  1179  00F5  28F9               	goto	i1l65
  1180  00F6                     u6_20:	
  1181  00F6                     i1l746:	
  1182                           
  1183                           ;LAB_2.c: 72:             IN2 = 1;
  1184  00F6  01F1               	clrf	_IN2
  1185  00F7  0AF1               	incf	_IN2,f
  1186                           
  1187                           ;LAB_2.c: 73:             (INTCONbits.GIE = 0);
  1188  00F8  138B               	bcf	11,7	;volatile
  1189  00F9                     i1l65:	
  1190                           ;LAB_2.c: 74:         }
  1191                           
  1192                           
  1193                           ;LAB_2.c: 75:         if(PORTBbits.RB1==0 && IN2==1){
  1194  00F9  1886               	btfsc	6,1	;volatile
  1195  00FA  28FC               	goto	u7_21
  1196  00FB  28FD               	goto	u7_20
  1197  00FC                     u7_21:	
  1198  00FC  2908               	goto	i1l64
  1199  00FD                     u7_20:	
  1200  00FD                     i1l748:	
  1201  00FD  0371               	decf	_IN2,w
  1202  00FE  1D03               	btfss	3,2
  1203  00FF  2901               	goto	u8_21
  1204  0100  2902               	goto	u8_20
  1205  0101                     u8_21:	
  1206  0101  2908               	goto	i1l64
  1207  0102                     u8_20:	
  1208  0102                     i1l750:	
  1209                           
  1210                           ;LAB_2.c: 76:             IN2=0;
  1211  0102  01F1               	clrf	_IN2
  1212  0103                     i1l752:	
  1213                           
  1214                           ;LAB_2.c: 77:             INN2=1;
  1215  0103  01F0               	clrf	_INN2
  1216  0104  0AF0               	incf	_INN2,f
  1217  0105                     i1l754:	
  1218                           
  1219                           ;LAB_2.c: 78:             INTCONbits.INTF = 0;
  1220  0105  108B               	bcf	11,1	;volatile
  1221  0106                     i1l756:	
  1222                           
  1223                           ;LAB_2.c: 79:             INTCONbits.RBIF = 0;
  1224  0106  100B               	bcf	11,0	;volatile
  1225  0107                     i1l758:	
  1226                           
  1227                           ;LAB_2.c: 80:             (INTCONbits.GIE = 1);
  1228  0107  178B               	bsf	11,7	;volatile
  1229  0108                     i1l64:	
  1230  0108  0876               	movf	??_ISR+1,w
  1231  0109  008A               	movwf	10
  1232  010A  0E75               	swapf	??_ISR^(0+4294967168),w
  1233  010B  0083               	movwf	3
  1234  010C  0EFE               	swapf	btemp,f
  1235  010D  0E7E               	swapf	btemp,w
  1236  010E  0009               	retfie
  1237  010F                     __end_of_ISR:	
  1238  007E                     btemp	set	126	;btemp
  1239  007E                     wtemp0	set	126
  1240                           
  1241                           	psect	intentry
  1242  0004                     __pintentry:	
  1243                           ;incstack = 0
  1244                           ; Regs used in _ISR: [wreg+status,2+status,0]
  1245                           
  1246  0004                     interrupt_function:	
  1247  007E                     saved_w	set	btemp
  1248  0004  00FE               	movwf	btemp
  1249  0005  0E03               	swapf	3,w
  1250  0006  00F5               	movwf	??_ISR
  1251  0007  080A               	movf	10,w
  1252  0008  00F6               	movwf	??_ISR+1
  1253  0009  120A  118A  28D3   	ljmp	_ISR


Data Sizes:
    Strings     0
    Constant    0
    Data        16
    BSS         5
    Persistent  4
    Stack       0

Auto Spaces:
    Space          Size  Autos    Used
    COMMON           14      4      12
    BANK0            80      2      19
    BANK1            80      0       0
    BANK3            96      0       0
    BANK2            96      0       0

Pointer List with Targets:

    None.

Critical Paths under _main in COMMON

    _main->_adc_conv

Critical Paths under _ISR in COMMON

    None.

Critical Paths under _main in BANK0

    None.

Critical Paths under _ISR in BANK0

    None.

Critical Paths under _main in BANK1

    None.

Critical Paths under _ISR in BANK1

    None.

Critical Paths under _main in BANK3

    None.

Critical Paths under _ISR in BANK3

    None.

Critical Paths under _main in BANK2

    None.

Critical Paths under _ISR in BANK2

    None.

Call Graph Tables:

 ---------------------------------------------------------------------------------
 (Depth) Function   	        Calls       Base Space   Used Autos Params    Refs
 ---------------------------------------------------------------------------------
 (0) _main                                                 2     2      0       0
                                              0 BANK0      2     2      0
                           _adc_conv
                         _config_adc
                             _timer0
 ---------------------------------------------------------------------------------
 (1) _timer0                                               0     0      0       0
 ---------------------------------------------------------------------------------
 (1) _config_adc                                           0     0      0       0
 ---------------------------------------------------------------------------------
 (1) _adc_conv                                             2     2      0       0
                                              2 COMMON     2     2      0
 ---------------------------------------------------------------------------------
 Estimated maximum stack depth 1
 ---------------------------------------------------------------------------------
 (Depth) Function   	        Calls       Base Space   Used Autos Params    Refs
 ---------------------------------------------------------------------------------
 (2) _ISR                                                  2     2      0       0
                                              0 COMMON     2     2      0
 ---------------------------------------------------------------------------------
 Estimated maximum stack depth 2
 ---------------------------------------------------------------------------------

 Call Graph Graphs:

 _main (ROOT)
   _adc_conv
   _config_adc
   _timer0

 _ISR (ROOT)

 Address spaces:
Name               Size   Autos  Total    Cost      Usage
BANK3               60      0       0       9        0.0%
BITBANK3            60      0       0       8        0.0%
SFR3                 0      0       0       4        0.0%
BITSFR3              0      0       0       4        0.0%
BANK2               60      0       0      11        0.0%
BITBANK2            60      0       0      10        0.0%
SFR2                 0      0       0       5        0.0%
BITSFR2              0      0       0       5        0.0%
BANK1               50      0       0       7        0.0%
BITBANK1            50      0       0       6        0.0%
SFR1                 0      0       0       2        0.0%
BITSFR1              0      0       0       2        0.0%
BANK0               50      2      13       5       23.8%
BITBANK0            50      0       0       4        0.0%
SFR0                 0      0       0       1        0.0%
BITSFR0              0      0       0       1        0.0%
COMMON               E      4       C       1       85.7%
BITCOMMON            E      0       0       0        0.0%
CODE                 0      0       0       0        0.0%
DATA                 0      0      1F      12        0.0%
ABS                  0      0      1F       3        0.0%
NULL                 0      0       0       0        0.0%
STACK                0      0       0       2        0.0%
EEDATA             100      0       0       0        0.0%


Microchip Technology PIC Macro Assembler V2.10 build 88905656 
Symbol Table                                                                                   Thu Feb 06 15:07:46 2020

                       _X 0079                         _Y 0032                         pc 0002  
             __CFG_CP$OFF 0000                        l74 00A5                        l77 00BE  
                      l79 00CE                        _X1 007B                        _Y1 007A  
                      fsr 0004                       l110 012B                       l104 016B  
                     l107 015D                       l710 015B                       l702 014F  
                     l712 015C                       l704 0153                       l720 015E  
                     l706 0157                       l722 0165                       l708 0158  
                     l724 0167                       l860 0119                       l862 011E  
                     l960 0026                       l858 010F                       l970 003B  
                     l962 0035                       l980 0040                       l972 003C  
                     l964 0038                       l990 004A                       l982 0041  
                     l974 003D                       l966 0039                       l992 004F  
                     l984 0042                       l976 003E                       l968 003A  
                     _IN1 0073                       l994 0054                       l986 0043  
                     l978 003F                       _IN2 0071                       l996 0057  
                     l988 0047                       l998 0058                       u300 00B3  
                     u301 00B2                       u310 00B9                       u311 00B8  
                     u320 00C3                       u321 00C2                       u330 00CC  
                     u331 00CB                       u260 0094                       u261 0093  
                     u270 009A                       u175 0121                       u271 0099  
                     u280 00A0                       u281 009F                       u290 00AA  
            __CFG_CPD$OFF 0000                       u291 00A9                       u347 0073  
                     _ISR 00D3                       u357 0088                       fsr0 0004  
                     indf 0000              __CFG_LVP$OFF 0000                      ?_ISR 0075  
                    l1000 0059                      l1010 0064                      l1002 005C  
                    l1020 0081                      l1012 006C                      l1004 005D  
                    l1030 0095                      l1022 0082                      l1014 006D  
                    l1006 005E                      l1032 009A                      l1040 00AE  
                    l1024 008D                      l1016 0078                      l1008 005F  
                    l1042 00B3                      l1050 00C4                      l1034 009B  
                    l1026 0090                      l1018 007B                      l1052 00C6  
                    l1044 00B4                      l1036 00A0                      l1028 0094  
                    l1054 00CC                      l1046 00B9                      l1038 00AA  
                    l1048 00C3                      _INN1 0072                      _INN2 0070  
                    i1l62 00E2                      i1l63 00F2                      i1l64 0108  
                    i1l65 00F9                      _TMR0 0001                      u2_20 00D8  
                    u2_21 00D7                      u3_20 00DF                      u3_21 00DE  
                    u4_20 00E6                      u4_21 00E5                      u5_20 00EB  
                    u5_21 00EA                      u6_20 00F6                      u6_21 00F5  
                    u7_20 00FD                      u7_21 00FC                      u8_20 0102  
                    u8_21 0101              __CFG_WRT$OFF 0000                      _disp 0020  
                    _main 0026                      btemp 007E                      start 000C  
           __CFG_IESO$OFF 0000                     ??_ISR 0075                     ?_main 0075  
           __CFG_WDTE$OFF 0000                     i1l730 00DF                     i1l740 00EF  
                   i1l732 00E6                     i1l750 0102                     i1l742 00F0  
                   i1l734 00EB                     i1l726 00D3                     i1l752 0103  
                   i1l736 00EC                     i1l728 00D8                     i1l754 0105  
                   i1l746 00F6                     i1l738 00EE                     i1l756 0106  
                   i1l748 00FD                     i1l758 0107                     _PORTA 0005  
                   _PORTC 0007                     _TRISA 0085                     _TRISC 0087  
          __CFG_FCMEN$OFF 0000            __CFG_BOREN$OFF 0000                     pclath 000A  
                   status 0003                     wtemp0 007E            __CFG_MCLRE$OFF 0000  
         __initialization 000F              __end_of_main 00D3                    ??_main 0030  
                  _ADRESH 001E                    _ANSELH 0189          __end_of_adc_conv 012C  
          __CFG_PWRTE$OFF 0000                    _timer0 015E                    saved_w 007E  
 __end_of__initialization 0022            __pcstackCOMMON 0075              __pidataBANK0 013F  
          _OPTION_REGbits 0081                __pnvCOMMON 0079                __pmaintext 0026  
              __pintentry 0004                   ?_timer0 0075                 ?_adc_conv 0075  
              _config_adc 014F                ??_adc_conv 0077                   __ptext1 015E  
                 __ptext2 014F                   __ptext3 010F                   __ptext4 00D3  
         __size_of_timer0 000E              __size_of_ISR 003C      end_of_initialization 0022  
               _PORTBbits 0006                 _PORTDbits 0008               ?_config_adc 0075  
               _TRISBbits 0086                 _TRISDbits 0088            __end_of_timer0 016C  
     start_initialization 000F               __end_of_ISR 010F  __CFG_FOSC$INTRC_NOCLKOUT 0000  
     __size_of_config_adc 000F                init_fetch0 012C               __pdataBANK0 0020  
                ??_timer0 0077         __size_of_adc_conv 001D               __pbssCOMMON 0070  
               ___latbits 0002             __pcstackBANK0 0030                 __pnvBANK0 0032  
       interrupt_function 0004                  _IOCBbits 0096                _ADCON0bits 001F  
              _ADCON1bits 009F              ??_config_adc 0077        __end_of_config_adc 015E  
                _adc_conv 010F         __CFG_BOR4V$BOR40V 0000                  _contador 0074  
           __size_of_main 00AD                _INTCONbits 000B                  init_ram0 0130  
                intlevel1 0000                _OSCCONbits 008F  
